target datalayout = "e-m:e-p270:32:32-p271:32:32-p272:64:64-i64:64-i128:128-f80:128-n8:16:32:64-S128"
target triple = "x86_64-pc-linux-gnu"

%struct.archive_write = type { %struct.archive, i32, i64, i64, ptr, i64, ptr, ptr, ptr, ptr, ptr, i32, i32, ptr, ptr, ptr, ptr, ptr, ptr, ptr, ptr, ptr, ptr, ptr, ptr, ptr, ptr }
%struct.archive = type { i32, i32, ptr, i32, ptr, i32, i32, ptr, %struct.archive_string, ptr, i32, i32, ptr, ptr, i64, i64, i64, i8, i64 }
%struct.archive_string = type { ptr, i64, i64 }
%struct.ar_w = type { i64, i64, i32, i32, i8, ptr }

@.str.26 = private unnamed_addr constant [34 x i8] c"More than one string tables exist\00", align 1
@.str.27 = private unnamed_addr constant [29 x i8] c"Can't allocate strtab buffer\00", align 1

; Function Attrs: nounwind uwtable
define internal i64 @archive_write_ar_data(ptr noundef %0, ptr noundef %1, i64 noundef %2) #0 {
  %4 = alloca i64, align 8
  %5 = alloca ptr, align 8
  %6 = alloca ptr, align 8
  %7 = alloca i64, align 8
  %8 = alloca ptr, align 8
  %9 = alloca i32, align 4
  %10 = alloca i32, align 4
  store ptr %0, ptr %5, align 8, !tbaa !9
  store ptr %1, ptr %6, align 8, !tbaa !44
  store i64 %2, ptr %7, align 8, !tbaa !37
  call void @llvm.lifetime.start.p0(i64 8, ptr %8) #9
  call void @llvm.lifetime.start.p0(i64 4, ptr %9) #9
  %11 = load ptr, ptr %5, align 8, !tbaa !9
  %12 = getelementptr inbounds nuw %struct.archive_write, ptr %11, i32 0, i32 15
  %13 = load ptr, ptr %12, align 8, !tbaa !26
  store ptr %13, ptr %8, align 8, !tbaa !24
  %14 = load i64, ptr %7, align 8, !tbaa !37
  %15 = load ptr, ptr %8, align 8, !tbaa !24
  %16 = getelementptr inbounds nuw %struct.ar_w, ptr %15, i32 0, i32 0
  %17 = load i64, ptr %16, align 8, !tbaa !42
  %18 = icmp ugt i64 %14, %17
  br i1 %18, label %19, label %23

19:                                               ; preds = %3
  %20 = load ptr, ptr %8, align 8, !tbaa !24
  %21 = getelementptr inbounds nuw %struct.ar_w, ptr %20, i32 0, i32 0
  %22 = load i64, ptr %21, align 8, !tbaa !42
  store i64 %22, ptr %7, align 8, !tbaa !37
  br label %23

23:                                               ; preds = %19, %3
  %24 = load ptr, ptr %8, align 8, !tbaa !24
  %25 = getelementptr inbounds nuw %struct.ar_w, ptr %24, i32 0, i32 2
  %26 = load i32, ptr %25, align 8, !tbaa !34
  %27 = icmp sgt i32 %26, 0
  br i1 %27, label %28, label %62

28:                                               ; preds = %23
  %29 = load ptr, ptr %8, align 8, !tbaa !24
  %30 = getelementptr inbounds nuw %struct.ar_w, ptr %29, i32 0, i32 3
  %31 = load i32, ptr %30, align 4, !tbaa !40
  %32 = icmp sgt i32 %31, 0
  br i1 %32, label %33, label %36

33:                                               ; preds = %28
  %34 = load ptr, ptr %5, align 8, !tbaa !9
  %35 = getelementptr inbounds nuw %struct.archive_write, ptr %34, i32 0, i32 0
  call void (ptr, i32, ptr, ...) @archive_set_error(ptr noundef %35, i32 noundef 22, ptr noundef @.str.26)
  store i64 -20, ptr %4, align 8
  store i32 1, ptr %10, align 4
  br label %79

36:                                               ; preds = %28
  %37 = load i64, ptr %7, align 8, !tbaa !37
  %38 = add i64 %37, 1
  %39 = call noalias ptr @malloc(i64 noundef %38) #12
  %40 = load ptr, ptr %8, align 8, !tbaa !24
  %41 = getelementptr inbounds nuw %struct.ar_w, ptr %40, i32 0, i32 5
  store ptr %39, ptr %41, align 8, !tbaa !41
  %42 = load ptr, ptr %8, align 8, !tbaa !24
  %43 = getelementptr inbounds nuw %struct.ar_w, ptr %42, i32 0, i32 5
  %44 = load ptr, ptr %43, align 8, !tbaa !41
  %45 = icmp eq ptr %44, null
  br i1 %45, label %46, label %49

46:                                               ; preds = %36
  %47 = load ptr, ptr %5, align 8, !tbaa !9
  %48 = getelementptr inbounds nuw %struct.archive_write, ptr %47, i32 0, i32 0
  call void (ptr, i32, ptr, ...) @archive_set_error(ptr noundef %48, i32 noundef 12, ptr noundef @.str.27)
  store i64 -30, ptr %4, align 8
  store i32 1, ptr %10, align 4
  br label %79

49:                                               ; preds = %36
  %50 = load ptr, ptr %8, align 8, !tbaa !24
  %51 = getelementptr inbounds nuw %struct.ar_w, ptr %50, i32 0, i32 5
  %52 = load ptr, ptr %51, align 8, !tbaa !41
  %53 = load ptr, ptr %6, align 8, !tbaa !44
  %54 = load i64, ptr %7, align 8, !tbaa !37
  call void @llvm.memcpy.p0.p0.i64(ptr align 1 %52, ptr align 1 %53, i64 %54, i1 false)
  %55 = load ptr, ptr %8, align 8, !tbaa !24
  %56 = getelementptr inbounds nuw %struct.ar_w, ptr %55, i32 0, i32 5
  %57 = load ptr, ptr %56, align 8, !tbaa !41
  %58 = load i64, ptr %7, align 8, !tbaa !37
  %59 = getelementptr inbounds nuw i8, ptr %57, i64 %58
  store i8 0, ptr %59, align 1, !tbaa !38
  %60 = load ptr, ptr %8, align 8, !tbaa !24
  %61 = getelementptr inbounds nuw %struct.ar_w, ptr %60, i32 0, i32 3
  store i32 1, ptr %61, align 4, !tbaa !40
  br label %62

62:                                               ; preds = %49, %23
  %63 = load ptr, ptr %5, align 8, !tbaa !9
  %64 = load ptr, ptr %6, align 8, !tbaa !44
  %65 = load i64, ptr %7, align 8, !tbaa !37
  %66 = call i32 @__archive_write_output(ptr noundef %63, ptr noundef %64, i64 noundef %65)
  store i32 %66, ptr %9, align 4, !tbaa !11
  %67 = load i32, ptr %9, align 4, !tbaa !11
  %68 = icmp ne i32 %67, 0
  br i1 %68, label %69, label %72

69:                                               ; preds = %62
  %70 = load i32, ptr %9, align 4, !tbaa !11
  %71 = sext i32 %70 to i64
  store i64 %71, ptr %4, align 8
  store i32 1, ptr %10, align 4
  br label %79

72:                                               ; preds = %62
  %73 = load i64, ptr %7, align 8, !tbaa !37
  %74 = load ptr, ptr %8, align 8, !tbaa !24
  %75 = getelementptr inbounds nuw %struct.ar_w, ptr %74, i32 0, i32 0
  %76 = load i64, ptr %75, align 8, !tbaa !42
  %77 = sub i64 %76, %73
  store i64 %77, ptr %75, align 8, !tbaa !42
  %78 = load i64, ptr %7, align 8, !tbaa !37
  store i64 %78, ptr %4, align 8
  store i32 1, ptr %10, align 4
  br label %79

79:                                               ; preds = %72, %69, %46, %33
  call void @llvm.lifetime.end.p0(i64 4, ptr %9) #9
  call void @llvm.lifetime.end.p0(i64 8, ptr %8) #9
  %80 = load i64, ptr %4, align 8
  ret i64 %80
}