; Function Attrs: nounwind uwtable
define internal i64 @archive_write_ar_data(ptr noundef %0, ptr noundef %1, i64 noundef %2) #0 {
  %4 = getelementptr inbounds nuw i8, ptr %0, i64 248
  %5 = load ptr, ptr %4, align 8, !tbaa !17
  %6 = load i64, ptr %5, align 8, !tbaa !34
  %spec.select = tail call i64 @llvm.umin.i64(i64 %2, i64 %6)
  %7 = getelementptr inbounds nuw i8, ptr %5, i64 16
  %8 = load i32, ptr %7, align 8, !tbaa !25
  %9 = icmp sgt i32 %8, 0
  br i1 %9, label %10, label %23

10:                                               ; preds = %3
  %11 = getelementptr inbounds nuw i8, ptr %5, i64 20
  %12 = load i32, ptr %11, align 4, !tbaa !31
  %13 = icmp sgt i32 %12, 0
  br i1 %13, label %14, label %15

14:                                               ; preds = %10
  tail call void (ptr, i32, ptr, ...) @archive_set_error(ptr noundef nonnull %0, i32 noundef 22, ptr noundef nonnull @.str.26) #12
  br label %30

15:                                               ; preds = %10
  %16 = add i64 %spec.select, 1
  %17 = tail call noalias ptr @malloc(i64 noundef %16) #15
  %18 = getelementptr inbounds nuw i8, ptr %5, i64 32
  store ptr %17, ptr %18, align 8, !tbaa !32
  %19 = icmp eq ptr %17, null
  br i1 %19, label %20, label %21

20:                                               ; preds = %15
  tail call void (ptr, i32, ptr, ...) @archive_set_error(ptr noundef nonnull %0, i32 noundef 12, ptr noundef nonnull @.str.27) #12
  br label %30

21:                                               ; preds = %15
  tail call void @llvm.memcpy.p0.p0.i64(ptr nonnull align 1 %17, ptr align 1 %1, i64 %spec.select, i1 false)
  %22 = getelementptr inbounds nuw i8, ptr %17, i64 %spec.select
  store i8 0, ptr %22, align 1, !tbaa !27
  store i32 1, ptr %11, align 4, !tbaa !31
  br label %23

23:                                               ; preds = %21, %3
  %24 = tail call i32 @__archive_write_output(ptr noundef nonnull %0, ptr noundef %1, i64 noundef %spec.select) #12
  %.not = icmp eq i32 %24, 0
  br i1 %.not, label %27, label %25

25:                                               ; preds = %23
  %26 = sext i32 %24 to i64
  br label %30

27:                                               ; preds = %23
  %28 = load i64, ptr %5, align 8, !tbaa !34
  %29 = sub i64 %28, %spec.select
  store i64 %29, ptr %5, align 8, !tbaa !34
  br label %30

30:                                               ; preds = %27, %25, %20, %14
  %.0 = phi i64 [ -20, %14 ], [ -30, %20 ], [ %26, %25 ], [ %spec.select, %27 ]
  ret i64 %.0
}